target datalayout = "e-m:e-p270:32:32-p271:32:32-p272:64:64-i64:64-i128:128-f80:128-n8:16:32:64-S128"
target triple = "x86_64-pc-linux-gnu"

%struct.ident_t = type { i32, i32, i32, i32, ptr }
%"class.std::__cxx11::basic_string" = type { %"struct.std::__cxx11::basic_string<char>::_Alloc_hider", i64, %union.anon }
%"struct.std::__cxx11::basic_string<char>::_Alloc_hider" = type { ptr }
%union.anon = type { i64, [8 x i8] }

@.str.2 = private unnamed_addr constant [108 x i8] c"generated/home/dtcxzyw/WorkSpace/Projects/compilers/llvm-opt-benchmark/bench/faiss/faiss/faiss/IndexNSG.cpp\00", align 1
@_ZTIN5faiss14FaissExceptionE = external constant ptr
@3 = private unnamed_addr constant %struct.ident_t { i32 0, i32 2, i32 0, i32 22, ptr @0 }, align 8
@stderr = external global ptr, align 8
@.str.20 = private unnamed_addr constant [54 x i8] c"WARNING: the input knn graph has %ld invalid entries\0A\00", align 1
@.str.21 = private unnamed_addr constant [105 x i8] c"Error: '%s' failed: There are too much invalid entries in the knn graph. It may be an invalid knn graph.\00", align 1
@.str.22 = private unnamed_addr constant [21 x i8] c"total_count < n / 10\00", align 1
@__PRETTY_FUNCTION__._ZNK5faiss8IndexNSG15check_knn_graphEPKlli = private unnamed_addr constant [71 x i8] c"void faiss::IndexNSG::check_knn_graph(const idx_t *, idx_t, int) const\00", align 1

; Function Attrs: mustprogress uwtable
define void @_ZNK5faiss8IndexNSG15check_knn_graphEPKlli(ptr noundef nonnull align 8 dereferenceable(5132) %0, ptr noundef %1, i64 noundef %2, i32 noundef %3) #1 align 2 personality ptr @__gxx_personality_v0 {
  %5 = alloca ptr, align 8
  %6 = alloca ptr, align 8
  %7 = alloca i64, align 8
  %8 = alloca i32, align 4
  %9 = alloca i64, align 8
  %10 = alloca %"class.std::__cxx11::basic_string", align 8
  %11 = alloca i32, align 4
  %12 = alloca ptr, align 8
  %13 = alloca i32, align 4
  store ptr %0, ptr %5, align 8
  store ptr %1, ptr %6, align 8
  store i64 %2, ptr %7, align 8
  store i32 %3, ptr %8, align 4
  store i64 0, ptr %9, align 8
  call void (ptr, i32, ptr, ...) @__kmpc_fork_call(ptr @3, i32 4, ptr @_ZNK5faiss8IndexNSG15check_knn_graphEPKlli.omp_outlined, ptr %7, ptr %8, ptr %6, ptr %9)
  %14 = load i64, ptr %9, align 8
  %15 = icmp sgt i64 %14, 0
  br i1 %15, label %16, label %20

16:                                               ; preds = %4
  %17 = load ptr, ptr @stderr, align 8
  %18 = load i64, ptr %9, align 8
  %19 = call i32 (ptr, ptr, ...) @fprintf(ptr noundef %17, ptr noundef @.str.20, i64 noundef %18) #7
  br label %20

20:                                               ; preds = %16, %4
  br label %21

21:                                               ; preds = %20
  %22 = load i64, ptr %9, align 8
  %23 = load i64, ptr %7, align 8
  %24 = sdiv i64 %23, 10
  %25 = icmp slt i64 %22, %24
  br i1 %25, label %49, label %26

26:                                               ; preds = %21
  br label %27

27:                                               ; preds = %26
  call void @_ZNSt7__cxx1112basic_stringIcSt11char_traitsIcESaIcEEC1Ev(ptr noundef nonnull align 8 dereferenceable(32) %10) #7
  %28 = call i32 (ptr, i64, ptr, ...) @snprintf(ptr noundef null, i64 noundef 0, ptr noundef @.str.21, ptr noundef @.str.22) #7
  store i32 %28, ptr %11, align 4
  %29 = load i32, ptr %11, align 4
  %30 = add nsw i32 %29, 1
  %31 = sext i32 %30 to i64
  invoke void @_ZNSt7__cxx1112basic_stringIcSt11char_traitsIcESaIcEE6resizeEm(ptr noundef nonnull align 8 dereferenceable(32) %10, i64 noundef %31)
          to label %32 unwind label %39

32:                                               ; preds = %27
  %33 = invoke noundef nonnull align 1 dereferenceable(1) ptr @_ZNSt7__cxx1112basic_stringIcSt11char_traitsIcESaIcEEixEm(ptr noundef nonnull align 8 dereferenceable(32) %10, i64 noundef 0)
          to label %34 unwind label %39

34:                                               ; preds = %32
  %35 = call noundef i64 @_ZNKSt7__cxx1112basic_stringIcSt11char_traitsIcESaIcEE4sizeEv(ptr noundef nonnull align 8 dereferenceable(32) %10) #7
  %36 = call i32 (ptr, i64, ptr, ...) @snprintf(ptr noundef %33, i64 noundef %35, ptr noundef @.str.21, ptr noundef @.str.22) #7
  %37 = call ptr @__cxa_allocate_exception(i64 40) #7
  invoke void @_ZN5faiss14FaissExceptionC1ERKNSt7__cxx1112basic_stringIcSt11char_traitsIcESaIcEEEPKcSA_i(ptr noundef nonnull align 8 dereferenceable(40) %37, ptr noundef nonnull align 8 dereferenceable(32) %10, ptr noundef @__PRETTY_FUNCTION__._ZNK5faiss8IndexNSG15check_knn_graphEPKlli, ptr noundef @.str.2, i32 noundef 268)
          to label %38 unwind label %43

38:                                               ; preds = %34
  invoke void @__cxa_throw(ptr %37, ptr @_ZTIN5faiss14FaissExceptionE, ptr @_ZN5faiss14FaissExceptionD2Ev) #16
          to label %56 unwind label %39

39:                                               ; preds = %38, %32, %27
  %40 = landingpad { ptr, i32 }
          cleanup
  %41 = extractvalue { ptr, i32 } %40, 0
  store ptr %41, ptr %12, align 8
  %42 = extractvalue { ptr, i32 } %40, 1
  store i32 %42, ptr %13, align 4
  br label %47

43:                                               ; preds = %34
  %44 = landingpad { ptr, i32 }
          cleanup
  %45 = extractvalue { ptr, i32 } %44, 0
  store ptr %45, ptr %12, align 8
  %46 = extractvalue { ptr, i32 } %44, 1
  store i32 %46, ptr %13, align 4
  call void @__cxa_free_exception(ptr %37) #7
  br label %47

47:                                               ; preds = %43, %39
  call void @_ZNSt7__cxx1112basic_stringIcSt11char_traitsIcESaIcEED1Ev(ptr noundef nonnull align 8 dereferenceable(32) %10) #7
  br label %51

48:                                               ; No predecessors!
  br label %49

49:                                               ; preds = %48, %21
  br label %50

50:                                               ; preds = %49
  ret void

51:                                               ; preds = %47
  %52 = load ptr, ptr %12, align 8
  %53 = load i32, ptr %13, align 4
  %54 = insertvalue { ptr, i32 } poison, ptr %52, 0
  %55 = insertvalue { ptr, i32 } %54, i32 %53, 1
  resume { ptr, i32 } %55

56:                                               ; preds = %38
  unreachable
}