; Function Attrs: mustprogress uwtable
define void @_ZNK5faiss8IndexNSG15check_knn_graphEPKlli(ptr nocapture nonnull readnone align 8 %0, ptr noundef %1, i64 noundef %2, i32 noundef %3) local_unnamed_addr #1 align 2 personality ptr @__gxx_personality_v0 {
  %5 = alloca ptr, align 8
  %6 = alloca i64, align 8
  %7 = alloca i32, align 4
  %8 = alloca i64, align 8
  %9 = alloca %"class.std::__cxx11::basic_string", align 8
  store ptr %1, ptr %5, align 8
  store i64 %2, ptr %6, align 8
  store i32 %3, ptr %7, align 4
  store i64 0, ptr %8, align 8
  call void (ptr, i32, ptr, ...) @__kmpc_fork_call(ptr nonnull @3, i32 4, ptr nonnull @_ZNK5faiss8IndexNSG15check_knn_graphEPKlli.omp_outlined, ptr nonnull %6, ptr nonnull %7, ptr nonnull %5, ptr nonnull %8)
  %10 = load i64, ptr %8, align 8
  %11 = icmp sgt i64 %10, 0
  br i1 %11, label %12, label %15

12:                                               ; preds = %4
  %13 = load ptr, ptr @stderr, align 8
  %14 = call i32 (ptr, ptr, ...) @fprintf(ptr noundef %13, ptr noundef nonnull @.str.20, i64 noundef %10) #23
  %.pre = load i64, ptr %8, align 8
  br label %15

15:                                               ; preds = %4, %12
  %16 = phi i64 [ %10, %4 ], [ %.pre, %12 ]
  %17 = load i64, ptr %6, align 8
  %18 = sdiv i64 %17, 10
  %19 = icmp slt i64 %16, %18
  br i1 %19, label %36, label %20

20:                                               ; preds = %15
  call void @_ZNSt7__cxx1112basic_stringIcSt11char_traitsIcESaIcEEC1Ev(ptr noundef nonnull align 8 dereferenceable(32) %9) #8
  %21 = call i32 (ptr, i64, ptr, ...) @snprintf(ptr noundef null, i64 noundef 0, ptr noundef nonnull @.str.21, ptr noundef nonnull @.str.22) #8
  %22 = add nsw i32 %21, 1
  %23 = sext i32 %22 to i64
  invoke void @_ZNSt7__cxx1112basic_stringIcSt11char_traitsIcESaIcEE6resizeEm(ptr noundef nonnull align 8 dereferenceable(32) %9, i64 noundef %23)
          to label %24 unwind label %31

24:                                               ; preds = %20
  %25 = invoke noundef nonnull align 1 dereferenceable(1) ptr @_ZNSt7__cxx1112basic_stringIcSt11char_traitsIcESaIcEEixEm(ptr noundef nonnull align 8 dereferenceable(32) %9, i64 noundef 0)
          to label %26 unwind label %31

26:                                               ; preds = %24
  %27 = call noundef i64 @_ZNKSt7__cxx1112basic_stringIcSt11char_traitsIcESaIcEE4sizeEv(ptr noundef nonnull align 8 dereferenceable(32) %9) #8
  %28 = call i32 (ptr, i64, ptr, ...) @snprintf(ptr noundef nonnull %25, i64 noundef %27, ptr noundef nonnull @.str.21, ptr noundef nonnull @.str.22) #8
  %29 = call ptr @__cxa_allocate_exception(i64 40) #8
  invoke void @_ZN5faiss14FaissExceptionC1ERKNSt7__cxx1112basic_stringIcSt11char_traitsIcESaIcEEEPKcSA_i(ptr noundef nonnull align 8 dereferenceable(40) %29, ptr noundef nonnull align 8 dereferenceable(32) %9, ptr noundef nonnull @__PRETTY_FUNCTION__._ZNK5faiss8IndexNSG15check_knn_graphEPKlli, ptr noundef nonnull @.str.2, i32 noundef 268)
          to label %30 unwind label %33

30:                                               ; preds = %26
  invoke void @__cxa_throw(ptr nonnull %29, ptr nonnull @_ZTIN5faiss14FaissExceptionE, ptr nonnull @_ZN5faiss14FaissExceptionD2Ev) #20
          to label %37 unwind label %31

31:                                               ; preds = %30, %24, %20
  %32 = landingpad { ptr, i32 }
          cleanup
  br label %35

33:                                               ; preds = %26
  %34 = landingpad { ptr, i32 }
          cleanup
  call void @__cxa_free_exception(ptr %29) #8
  br label %35

35:                                               ; preds = %33, %31
  %.pn = phi { ptr, i32 } [ %32, %31 ], [ %34, %33 ]
  call void @_ZNSt7__cxx1112basic_stringIcSt11char_traitsIcESaIcEED1Ev(ptr noundef nonnull align 8 dereferenceable(32) %9) #8
  resume { ptr, i32 } %.pn

36:                                               ; preds = %15
  ret void

37:                                               ; preds = %30
  unreachable
}